(lp0
(dp1
S'clip_dem_path'
p2
V\u005cdata\u005cdem\u005czhangge\u005czhangge.tiflayer/zhangge_clip.tif
p3
sS'cell_size'
p4
F0.000135377918650127
sS'dem'
p5
Vzhangge
p6
sS'points_out_path'
p7
V\u005cdata\u005cdem\u005czhangge\u005czhangge.tiflayer/pour_point.shp
p8
sS'dem_path'
p9
V\u005cdata\u005cdem\u005czhangge\u005czhangge.tif
p10
sS'stream_order'
p11
V\u005cdata\u005cdem\u005czhangge\u005czhangge.tiflayer/stream_order.shp
p12
sS'layer_path'
p13
V\u005cdata\u005cdem\u005czhangge\u005czhangge.tiflayer
p14
sa.